target datalayout = "e-m:e-p270:32:32-p271:32:32-p272:64:64-i64:64-i128:128-f80:128-n8:16:32:64-S128"
target triple = "x86_64-pc-linux-gnu"

%class.QPointF = type { double, double }
%class.QColor = type <{ i32, %"union.QColor::CT", [2 x i8] }>
%"union.QColor::CT" = type { %struct.anon }
%struct.anon = type { i16, i16, i16, i16, i16 }
%class.EqHandle = type { %class.Handle, i32, double, [3 x %class.QPointF], ptr, ptr, ptr }
%class.Handle = type { %class.QGraphicsObject, %class.QColor, i32, ptr }
%class.QGraphicsObject = type { %class.QObject, %class.QGraphicsItem }
%class.QObject = type { ptr, %class.QScopedPointer }
%class.QScopedPointer = type { ptr }
%class.QGraphicsItem = type { ptr, %class.QScopedPointer.4 }
%class.QScopedPointer.4 = type { ptr }

; Function Attrs: mustprogress nounwind uwtable
define linkonce_odr void @_ZN7QPointFC2Edd(ptr noundef nonnull align 8 dereferenceable(16) %0, double noundef %1, double noundef %2) unnamed_addr #1 comdat align 2 {
  %4 = alloca ptr, align 8
  %5 = alloca double, align 8
  %6 = alloca double, align 8
  store ptr %0, ptr %4, align 8
  store double %1, ptr %5, align 8
  store double %2, ptr %6, align 8
  %7 = load ptr, ptr %4, align 8
  %8 = getelementptr inbounds %class.QPointF, ptr %7, i32 0, i32 0
  %9 = load double, ptr %5, align 8
  store double %9, ptr %8, align 8
  %10 = getelementptr inbounds %class.QPointF, ptr %7, i32 0, i32 1
  %11 = load double, ptr %6, align 8
  store double %11, ptr %10, align 8
  ret void
}

; Function Attrs: mustprogress uwtable
define linkonce_odr void @_ZN13QGraphicsItem6setPosEdd(ptr noundef nonnull align 8 dereferenceable(16) %0, double noundef %1, double noundef %2) #0 comdat align 2 {
  %4 = alloca ptr, align 8
  %5 = alloca double, align 8
  %6 = alloca double, align 8
  %7 = alloca %class.QPointF, align 8
  store ptr %0, ptr %4, align 8
  store double %1, ptr %5, align 8
  store double %2, ptr %6, align 8
  %8 = load ptr, ptr %4, align 8
  %9 = load double, ptr %5, align 8
  %10 = load double, ptr %6, align 8
  call void @_ZN7QPointFC2Edd(ptr noundef nonnull align 8 dereferenceable(16) %7, double noundef %9, double noundef %10)
  call void @_ZN13QGraphicsItem6setPosERK7QPointF(ptr noundef nonnull align 8 dereferenceable(16) %8, ptr noundef nonnull align 8 dereferenceable(16) %7)
  ret void
}

; Function Attrs: mustprogress nounwind uwtable
define linkonce_odr noundef double @_ZNK7QPointF1yEv(ptr noundef nonnull align 8 dereferenceable(16) %0) #1 comdat align 2 {
  %2 = alloca ptr, align 8
  store ptr %0, ptr %2, align 8
  %3 = load ptr, ptr %2, align 8
  %4 = getelementptr inbounds %class.QPointF, ptr %3, i32 0, i32 1
  %5 = load double, ptr %4, align 8
  ret double %5
}

; Function Attrs: mustprogress nounwind uwtable
define linkonce_odr noundef double @_ZNK7QPointF1xEv(ptr noundef nonnull align 8 dereferenceable(16) %0) #1 comdat align 2 {
  %2 = alloca ptr, align 8
  store ptr %0, ptr %2, align 8
  %3 = load ptr, ptr %2, align 8
  %4 = getelementptr inbounds %class.QPointF, ptr %3, i32 0, i32 0
  %5 = load double, ptr %4, align 8
  ret double %5
}

; Function Attrs: mustprogress uwtable
define void @_ZN8EqHandle13moveMidHandleEv(ptr noundef nonnull align 8 dereferenceable(152) %0) #0 align 2 {
  %2 = alloca ptr, align 8
  %3 = alloca double, align 8
  %4 = alloca %class.QPointF, align 8
  %5 = alloca %class.QPointF, align 8
  %6 = alloca %class.QPointF, align 8
  %7 = alloca %class.QPointF, align 8
  %8 = alloca double, align 8
  store ptr %0, ptr %2, align 8
  %9 = load ptr, ptr %2, align 8
  %10 = getelementptr inbounds %class.EqHandle, ptr %9, i32 0, i32 5
  %11 = load ptr, ptr %10, align 8
  %12 = getelementptr inbounds ptr, ptr %11, i64 0
  %13 = load ptr, ptr %12, align 8
  %14 = getelementptr inbounds i8, ptr %13, i64 16
  %15 = call { double, double } @_ZNK13QGraphicsItem3posEv(ptr noundef nonnull align 8 dereferenceable(16) %14)
  %16 = getelementptr inbounds { double, double }, ptr %4, i32 0, i32 0
  %17 = extractvalue { double, double } %15, 0
  store double %17, ptr %16, align 8
  %18 = getelementptr inbounds { double, double }, ptr %4, i32 0, i32 1
  %19 = extractvalue { double, double } %15, 1
  store double %19, ptr %18, align 8
  %20 = call noundef double @_ZNK7QPointF1xEv(ptr noundef nonnull align 8 dereferenceable(16) %4)
  %21 = getelementptr inbounds %class.EqHandle, ptr %9, i32 0, i32 4
  %22 = load ptr, ptr %21, align 8
  %23 = load double, ptr %22, align 8
  %24 = getelementptr inbounds %class.EqHandle, ptr %9, i32 0, i32 5
  %25 = load ptr, ptr %24, align 8
  %26 = getelementptr inbounds ptr, ptr %25, i64 2
  %27 = load ptr, ptr %26, align 8
  %28 = getelementptr inbounds i8, ptr %27, i64 16
  %29 = call { double, double } @_ZNK13QGraphicsItem3posEv(ptr noundef nonnull align 8 dereferenceable(16) %28)
  %30 = getelementptr inbounds { double, double }, ptr %5, i32 0, i32 0
  %31 = extractvalue { double, double } %29, 0
  store double %31, ptr %30, align 8
  %32 = getelementptr inbounds { double, double }, ptr %5, i32 0, i32 1
  %33 = extractvalue { double, double } %29, 1
  store double %33, ptr %32, align 8
  %34 = call noundef double @_ZNK7QPointF1xEv(ptr noundef nonnull align 8 dereferenceable(16) %5)
  %35 = getelementptr inbounds %class.EqHandle, ptr %9, i32 0, i32 5
  %36 = load ptr, ptr %35, align 8
  %37 = getelementptr inbounds ptr, ptr %36, i64 0
  %38 = load ptr, ptr %37, align 8
  %39 = getelementptr inbounds i8, ptr %38, i64 16
  %40 = call { double, double } @_ZNK13QGraphicsItem3posEv(ptr noundef nonnull align 8 dereferenceable(16) %39)
  %41 = getelementptr inbounds { double, double }, ptr %6, i32 0, i32 0
  %42 = extractvalue { double, double } %40, 0
  store double %42, ptr %41, align 8
  %43 = getelementptr inbounds { double, double }, ptr %6, i32 0, i32 1
  %44 = extractvalue { double, double } %40, 1
  store double %44, ptr %43, align 8
  %45 = call noundef double @_ZNK7QPointF1xEv(ptr noundef nonnull align 8 dereferenceable(16) %6)
  %46 = fsub double %34, %45
  %47 = call double @llvm.fmuladd.f64(double %23, double %46, double %20)
  store double %47, ptr %3, align 8
  %48 = getelementptr inbounds i8, ptr %9, i64 16
  %49 = load double, ptr %3, align 8
  %50 = getelementptr inbounds i8, ptr %9, i64 16
  %51 = call { double, double } @_ZNK13QGraphicsItem3posEv(ptr noundef nonnull align 8 dereferenceable(16) %50)
  %52 = getelementptr inbounds { double, double }, ptr %7, i32 0, i32 0
  %53 = extractvalue { double, double } %51, 0
  store double %53, ptr %52, align 8
  %54 = getelementptr inbounds { double, double }, ptr %7, i32 0, i32 1
  %55 = extractvalue { double, double } %51, 1
  store double %55, ptr %54, align 8
  %56 = call noundef double @_ZNK7QPointF1yEv(ptr noundef nonnull align 8 dereferenceable(16) %7)
  call void @_ZN13QGraphicsItem6setPosEdd(ptr noundef nonnull align 8 dereferenceable(16) %48, double noundef %49, double noundef %56)
  %57 = load double, ptr %3, align 8
  %58 = call noundef double @_ZN8EqHandle17positionToQualityEd(ptr noundef nonnull align 8 dereferenceable(152) %9, double noundef %57)
  store double %58, ptr %8, align 8
  %59 = getelementptr inbounds %class.EqHandle, ptr %9, i32 0, i32 6
  %60 = load ptr, ptr %59, align 8
  %61 = call noundef zeroext i1 @_ZN7QObject12blockSignalsEb(ptr noundef nonnull align 8 dereferenceable(16) %60, i1 noundef zeroext true) #9
  %62 = load double, ptr %8, align 8
  call void @_ZN8EqHandle24positionChangedToSpinBoxEd(ptr noundef nonnull align 8 dereferenceable(152) %9, double noundef %62)
  %63 = getelementptr inbounds %class.EqHandle, ptr %9, i32 0, i32 6
  %64 = load ptr, ptr %63, align 8
  %65 = call noundef zeroext i1 @_ZN7QObject12blockSignalsEb(ptr noundef nonnull align 8 dereferenceable(16) %64, i1 noundef zeroext false) #9
  ret void
}