; Function Attrs: mustprogress uwtable
define void @_ZN8EqHandle13moveMidHandleEv(ptr noundef nonnull align 8 dereferenceable(152) %0) local_unnamed_addr #0 align 2 {
  %2 = alloca %class.QPointF, align 8
  %3 = getelementptr inbounds i8, ptr %0, i64 136
  %4 = load ptr, ptr %3, align 8
  %5 = load ptr, ptr %4, align 8
  %6 = getelementptr inbounds i8, ptr %5, i64 16
  %7 = tail call { double, double } @_ZNK13QGraphicsItem3posEv(ptr noundef nonnull align 8 dereferenceable(16) %6)
  %8 = extractvalue { double, double } %7, 0
  %9 = getelementptr inbounds i8, ptr %0, i64 128
  %10 = load ptr, ptr %9, align 8
  %11 = load double, ptr %10, align 8
  %12 = load ptr, ptr %3, align 8
  %13 = getelementptr inbounds i8, ptr %12, i64 16
  %14 = load ptr, ptr %13, align 8
  %15 = getelementptr inbounds i8, ptr %14, i64 16
  %16 = tail call { double, double } @_ZNK13QGraphicsItem3posEv(ptr noundef nonnull align 8 dereferenceable(16) %15)
  %17 = extractvalue { double, double } %16, 0
  %18 = load ptr, ptr %3, align 8
  %19 = load ptr, ptr %18, align 8
  %20 = getelementptr inbounds i8, ptr %19, i64 16
  %21 = tail call { double, double } @_ZNK13QGraphicsItem3posEv(ptr noundef nonnull align 8 dereferenceable(16) %20)
  %22 = extractvalue { double, double } %21, 0
  %23 = fsub double %17, %22
  %24 = tail call double @llvm.fmuladd.f64(double %11, double %23, double %8)
  %25 = getelementptr inbounds i8, ptr %0, i64 16
  %26 = tail call { double, double } @_ZNK13QGraphicsItem3posEv(ptr noundef nonnull align 8 dereferenceable(16) %25)
  %27 = extractvalue { double, double } %26, 1
  call void @llvm.lifetime.start.p0(i64 16, ptr nonnull %2)
  store double %24, ptr %2, align 8
  %28 = getelementptr inbounds i8, ptr %2, i64 8
  store double %27, ptr %28, align 8
  call void @_ZN13QGraphicsItem6setPosERK7QPointF(ptr noundef nonnull align 8 dereferenceable(16) %25, ptr noundef nonnull align 8 dereferenceable(16) %2)
  call void @llvm.lifetime.end.p0(i64 16, ptr nonnull %2)
  %29 = call noundef double @_ZN8EqHandle17positionToQualityEd(ptr noundef nonnull align 8 dereferenceable(152) %0, double noundef %24)
  %30 = getelementptr inbounds i8, ptr %0, i64 144
  %31 = load ptr, ptr %30, align 8
  %32 = call noundef zeroext i1 @_ZN7QObject12blockSignalsEb(ptr noundef nonnull align 8 dereferenceable(16) %31, i1 noundef zeroext true) #14
  call void @_ZN8EqHandle24positionChangedToSpinBoxEd(ptr noundef nonnull align 8 dereferenceable(152) %0, double noundef %29)
  %33 = load ptr, ptr %30, align 8
  %34 = call noundef zeroext i1 @_ZN7QObject12blockSignalsEb(ptr noundef nonnull align 8 dereferenceable(16) %33, i1 noundef zeroext false) #14
  ret void
}